(dp0
Vengine
p1
Vxelatex
p2
sVpackages
p3
c__builtin__
set
p4
((lp5
Vhyperref
p6
aVxcolor
p7
aVcourier
p8
aVbooktabs
p9
aVcolor
p10
aVfontspec
p11
aVlistings
p12
aVt1enc
p13
aVpdfsync
p14
aVdatetime
p15
aVurl
p16
aVmulticol
p17
aVfootmisc
p18
aVanyfontsize
p19
aVdraftwatermark
p20
aVmakeidx
p21
aVchangepage
p22
aVgraphicx
p23
aVcaption
p24
aVamssymb
p25
atp26
Rp27
sVfiles_with_guttermarks
p28
g4
((lp29
V/Users/pauln/Dropbox/DocumentsF/_Research/CurrentProjects/_ComputationPhysicsBook/Chapters/BasicPython/BasicPython.tex
p30
aV/usr/local/texlive/2014/texmf-dist/tex/latex/fontspec/fontspec.sty
p31
aV/Users/pauln/Dropbox/DocumentsF/_Research/CurrentProjects/_ComputationPhysicsBook/appendices/digitalSubmission/submission.tex
p32
aS'CompPhysicsPython.tex'
p33
aV/Users/pauln/Dropbox/DocumentsF/_Research/CurrentProjects/_ComputationPhysicsBook/CompPhysicsPython.tex
p34
aV/Users/pauln/Dropbox/DocumentsF/_Research/CurrentProjects/_ComputationPhysicsBook/Chapters/Kinematics/Kinematics.tex
p35
aV/Users/pauln/Dropbox/DocumentsF/_Research/CurrentProjects/_ComputationPhysicsBook/Chapters/introToLatex/introLatex.tex
p36
aV/Users/pauln/Dropbox/DocumentsF/_Research/CurrentProjects/_ComputationPhysicsBook/appendices/guidelinesForProgramming/programmingGuidelines.tex
p37
aV/Users/pauln/Dropbox/DocumentsF/_Research/CurrentProjects/_ComputationPhysicsBook/appendices/guidelinesForReports/guidelines.tex
p38
atp39
Rp40
sVsynctex
p41
I01
s.